target datalayout = "e-m:e-p270:32:32-p271:32:32-p272:64:64-i64:64-i128:128-f80:128-n8:16:32:64-S128"
target triple = "x86_64-pc-linux-gnu"

%struct._zval_struct = type { %union._zend_value, %union.anon, %union.anon.2 }
%union._zend_value = type { i64 }
%union.anon = type { i32 }
%union.anon.2 = type { i32 }
%struct._zend_fcall_info_cache = type { ptr, ptr, ptr, ptr, ptr }
%struct._php_sqlite3_func = type { ptr, ptr, i32, %struct._zend_fcall_info_cache, %struct._zend_fcall_info_cache, %struct._zend_fcall_info_cache }
%struct._php_sqlite3_agg_context = type { %struct._zval_struct, i64 }

; Function Attrs: nounwind uwtable
define internal void @php_sqlite3_callback_final(ptr noundef %0) #0 {
  %2 = alloca ptr, align 8
  %3 = alloca ptr, align 8
  %4 = alloca ptr, align 8
  store ptr %0, ptr %2, align 8, !tbaa !113
  call void @llvm.lifetime.start.p0(i64 8, ptr %3) #15
  %5 = load ptr, ptr %2, align 8, !tbaa !113
  %6 = call ptr @sqlite3_user_data(ptr noundef %5)
  store ptr %6, ptr %3, align 8, !tbaa !107
  call void @llvm.lifetime.start.p0(i64 8, ptr %4) #15
  %7 = load ptr, ptr %2, align 8, !tbaa !113
  %8 = call ptr @sqlite3_aggregate_context(ptr noundef %7, i32 noundef 24)
  store ptr %8, ptr %4, align 8, !tbaa !119
  %9 = load ptr, ptr %4, align 8, !tbaa !119
  %10 = getelementptr inbounds nuw %struct._php_sqlite3_agg_context, ptr %9, i32 0, i32 1
  store i64 0, ptr %10, align 8, !tbaa !121
  %11 = load ptr, ptr %3, align 8, !tbaa !107
  %12 = getelementptr inbounds nuw %struct._php_sqlite3_func, ptr %11, i32 0, i32 5
  %13 = load ptr, ptr %2, align 8, !tbaa !113
  %14 = call i32 @sqlite3_do_callback(ptr noundef %12, i32 noundef 0, ptr noundef null, ptr noundef %13, i32 noundef 1)
  call void @llvm.lifetime.end.p0(i64 8, ptr %4) #15
  call void @llvm.lifetime.end.p0(i64 8, ptr %3) #15
  ret void
}