; Function Attrs: nounwind uwtable
define internal void @php_sqlite3_callback_final(ptr noundef %0) #0 {
  %2 = tail call ptr @sqlite3_user_data(ptr noundef %0) #17
  %3 = tail call ptr @sqlite3_aggregate_context(ptr noundef %0, i32 noundef 24) #17
  %4 = getelementptr inbounds nuw i8, ptr %3, i64 16
  store i64 0, ptr %4, align 8, !tbaa !113
  %5 = getelementptr inbounds nuw i8, ptr %2, i64 104
  tail call fastcc void @sqlite3_do_callback(ptr noundef nonnull %5, i32 noundef 0, ptr noundef null, ptr noundef %0, i32 noundef 1)
  ret void
}